(dp0
S'failed'
p1
(lp2
S'41'
p3
asS'source_names'
p4
(lp5
S'.'
p6
asS'ids'
p7
(dp8
I1
(S'/home/rob/work/build/code/src/mine/test/test.py'
p9
S'mine.test.test'
p10
S'test'
p11
tp12
sI2
(S'/home/rob/work/build/code/src/mine/test/test.py'
p13
S'mine.test.test'
p14
S'testNothing'
p15
tp16
sI3
(S'/home/rob/work/build/code/src/mine/test/test.py'
p17
S'mine.test.test'
p18
S'test_nothing'
p19
tp20
sI4
(S'/home/rob/work/build/code/src/test/dummy_test.py'
p21
S'test.dummy_test'
p22
S'test_nothing'
p23
tp24
sI5
(S'/home/rob/work/build/code/src/test/euler0001_test.py'
p25
S'test.euler0001_test'
p26
S'test_given'
p27
tp28
sI6
(S'/home/rob/work/build/code/src/test/dummy_test.py'
p29
S'test.dummy_test'
p30
S'test_pass'
p31
tp32
sI7
(S'/home/rob/work/build/code/src/test/dummy_test.py'
p33
g30
S'test_true'
p34
tp35
sI8
(S'/home/rob/work/build/code/src/test/euler0001_test.py'
p36
S'test.euler0001_test'
p37
S'test_given_sum'
p38
tp39
sI9
(S'/home/rob/work/build/code/src/test/euler0001_test.py'
p40
g37
S'test_given_multiples'
p41
tp42
sI10
(S'/home/rob/work/build/code/src/test/euler0001_test.py'
p43
S'test.euler0001_test'
p44
S'test_is_multiple_of_three'
p45
tp46
sI11
(S'/home/rob/work/build/code/src/test/euler0001_test.py'
p47
g44
S'test_is_multiple_of_five'
p48
tp49
sI12
(S'/home/rob/work/build/code/src/test/euler0001_test.py'
p50
S'test.euler0001_test'
p51
S'test_desired_solution'
p52
tp53
sI13
(S'/home/rob/work/build/code/src/test/euler001_test.py'
p54
S'test.euler001_test'
p55
S'test_is_multiple_of_three'
p56
tp57
sI14
(S'/home/rob/work/build/code/src/test/euler001_test.py'
p58
g55
S'test_is_multiple_of_five'
p59
tp60
sI15
(S'/home/rob/work/build/code/src/test/euler001_test.py'
p61
g55
S'test_given_multiples'
p62
tp63
sI16
(S'/home/rob/work/build/code/src/test/euler001_test.py'
p64
g55
S'test_given_sum'
p65
tp66
sI17
(S'/home/rob/work/build/code/src/test/euler001_test.py'
p67
g55
S'test_desired_solution'
p68
tp69
sI18
(S'/home/rob/work/build/code/src/test/euler002_test.py'
p70
S'test.euler002_test'
p71
Ntp72
sI19
(S'/home/rob/work/build/code/src/test/euler002_test.py'
p73
S'test.euler002_test'
p74
S'test_given_terms'
p75
tp76
sI20
(S'/home/rob/work/build/code/src/test/euler002_test.py'
p77
S'test.euler002_test'
p78
S'test_invalid_index'
p79
tp80
sI21
(S'/home/rob/work/build/code/src/test/euler002_test.py'
p81
g78
S'test_zero_term'
p82
tp83
sI22
(S'/home/rob/work/build/code/src/test/euler002_test.py'
p84
S'test.euler002_test'
p85
S'test_invalid_index_is_rejected'
p86
tp87
sI23
(S'/home/rob/work/build/code/src/test/euler001_test.py'
p88
S'test.euler001_test'
p89
Ntp90
sI24
(S'/home/rob/work/build/code/src/test/euler001_test.py'
p91
S'test.euler001_test'
p92
S'test_solution'
p93
tp94
sI25
(S'/home/rob/work/build/code/src/test/euler002_test.py'
p95
S'test.euler002_test'
p96
S'test_zeroth_term'
p97
tp98
sI26
(S'/home/rob/work/build/code/src/test/euler002_test.py'
p99
S'test.euler002_test'
p100
S'test_sum_of_given_terms'
p101
tp102
sI27
(S'/home/rob/work/build/code/src/project_euler/test/dummy_test.py'
p103
S'project_euler.test.dummy_test'
p104
S'test_pass'
p105
tp106
sI28
(S'/home/rob/work/build/code/src/project_euler/test/dummy_test.py'
p107
g104
S'test_true'
p108
tp109
sI29
(S'/home/rob/work/build/code/src/project_euler/test/euler001_test.py'
p110
S'project_euler.test.euler001_test'
p111
S'test_is_multiple_of_three'
p112
tp113
sI30
(S'/home/rob/work/build/code/src/project_euler/test/euler001_test.py'
p114
g111
S'test_is_multiple_of_five'
p115
tp116
sI31
(S'/home/rob/work/build/code/src/project_euler/test/euler001_test.py'
p117
g111
S'test_given_multiples'
p118
tp119
sI32
(S'/home/rob/work/build/code/src/project_euler/test/euler001_test.py'
p120
g111
S'test_given_sum'
p121
tp122
sI33
(S'/home/rob/work/build/code/src/project_euler/test/euler001_test.py'
p123
g111
S'test_solution'
p124
tp125
sI34
(S'/home/rob/work/build/code/src/project_euler/test/euler002_test.py'
p126
S'project_euler.test.euler002_test'
p127
S'test_given_terms'
p128
tp129
sI35
(S'/home/rob/work/build/code/src/project_euler/test/euler002_test.py'
p130
g127
S'test_invalid_index_is_rejected'
p131
tp132
sI36
(S'/home/rob/work/build/code/src/project_euler/test/euler002_test.py'
p133
g127
S'test_zeroth_term'
p134
tp135
sI37
(S'/home/rob/work/build/code/src/project_euler/test/euler002_test.py'
p136
g127
S'test_sum_of_given_terms'
p137
tp138
sI38
(S'/home/rob/work/build/code/src/project_euler/test/euler002_test.py'
p139
S'project_euler.test.euler002_test'
p140
S'test_is_even'
p141
tp142
sI39
(S'/home/rob/work/build/code/src/project_euler/test/euler002_test.py'
p143
g140
S'test_sum_of_given_even_terms'
p144
tp145
sI40
(S'/home/rob/work/build/code/src/project_euler/test/euler002_test.py'
p146
S'project_euler.test.euler002_test'
p147
S'test_fibonacci_below'
p148
tp149
sI41
(S'/home/rob/work/build/code/src/project_euler/test/euler002_test.py'
p150
S'project_euler.test.euler002_test'
p151
S'test_solution'
p152
tp153
ss.