(dp0
S'failed'
p1
(lp2
sS'source_names'
p3
(lp4
S'.'
p5
asS'ids'
p6
(dp7
I1
(S'/home/rob/work/build/code/src/mine/test/test.py'
p8
S'mine.test.test'
p9
S'test'
p10
tp11
sI2
(S'/home/rob/work/build/code/src/mine/test/test.py'
p12
S'mine.test.test'
p13
S'testNothing'
p14
tp15
sI3
(S'/home/rob/work/build/code/src/mine/test/test.py'
p16
S'mine.test.test'
p17
S'test_nothing'
p18
tp19
sI4
(S'/home/rob/work/build/code/src/test/dummy_test.py'
p20
S'test.dummy_test'
p21
S'test_nothing'
p22
tp23
sI5
(S'/home/rob/work/build/code/src/test/euler0001_test.py'
p24
S'test.euler0001_test'
p25
S'test_given'
p26
tp27
sI6
(S'/home/rob/work/build/code/src/test/dummy_test.py'
p28
S'test.dummy_test'
p29
S'test_pass'
p30
tp31
sI7
(S'/home/rob/work/build/code/src/test/dummy_test.py'
p32
g29
S'test_true'
p33
tp34
sI8
(S'/home/rob/work/build/code/src/test/euler0001_test.py'
p35
S'test.euler0001_test'
p36
S'test_given_sum'
p37
tp38
sI9
(S'/home/rob/work/build/code/src/test/euler0001_test.py'
p39
g36
S'test_given_multiples'
p40
tp41
sI10
(S'/home/rob/work/build/code/src/test/euler0001_test.py'
p42
S'test.euler0001_test'
p43
S'test_is_multiple_of_three'
p44
tp45
sI11
(S'/home/rob/work/build/code/src/test/euler0001_test.py'
p46
g43
S'test_is_multiple_of_five'
p47
tp48
sI12
(S'/home/rob/work/build/code/src/test/euler0001_test.py'
p49
S'test.euler0001_test'
p50
S'test_desired_solution'
p51
tp52
sI13
(S'/home/rob/work/build/code/src/test/euler001_test.py'
p53
S'test.euler001_test'
p54
S'test_is_multiple_of_three'
p55
tp56
sI14
(S'/home/rob/work/build/code/src/test/euler001_test.py'
p57
g54
S'test_is_multiple_of_five'
p58
tp59
sI15
(S'/home/rob/work/build/code/src/test/euler001_test.py'
p60
g54
S'test_given_multiples'
p61
tp62
sI16
(S'/home/rob/work/build/code/src/test/euler001_test.py'
p63
g54
S'test_given_sum'
p64
tp65
sI17
(S'/home/rob/work/build/code/src/test/euler001_test.py'
p66
g54
S'test_desired_solution'
p67
tp68
sI18
(S'/home/rob/work/build/code/src/test/euler002_test.py'
p69
S'test.euler002_test'
p70
Ntp71
sI19
(S'/home/rob/work/build/code/src/test/euler002_test.py'
p72
S'test.euler002_test'
p73
S'test_given_terms'
p74
tp75
sI20
(S'/home/rob/work/build/code/src/test/euler002_test.py'
p76
S'test.euler002_test'
p77
S'test_invalid_index'
p78
tp79
sI21
(S'/home/rob/work/build/code/src/test/euler002_test.py'
p80
g77
S'test_zero_term'
p81
tp82
sI22
(S'/home/rob/work/build/code/src/test/euler002_test.py'
p83
S'test.euler002_test'
p84
S'test_invalid_index_is_rejected'
p85
tp86
sI23
(S'/home/rob/work/build/code/src/test/euler001_test.py'
p87
S'test.euler001_test'
p88
Ntp89
sI24
(S'/home/rob/work/build/code/src/test/euler001_test.py'
p90
S'test.euler001_test'
p91
S'test_solution'
p92
tp93
sI25
(S'/home/rob/work/build/code/src/test/euler002_test.py'
p94
S'test.euler002_test'
p95
S'test_zeroth_term'
p96
tp97
sI26
(S'/home/rob/work/build/code/src/test/euler002_test.py'
p98
S'test.euler002_test'
p99
S'test_sum_of_given_terms'
p100
tp101
sI27
(S'/home/rob/work/build/code/src/project_euler/test/dummy_test.py'
p102
S'project_euler.test.dummy_test'
p103
S'test_pass'
p104
tp105
sI28
(S'/home/rob/work/build/code/src/project_euler/test/dummy_test.py'
p106
g103
S'test_true'
p107
tp108
sI29
(S'/home/rob/work/build/code/src/project_euler/test/euler001_test.py'
p109
S'project_euler.test.euler001_test'
p110
S'test_is_multiple_of_three'
p111
tp112
sI30
(S'/home/rob/work/build/code/src/project_euler/test/euler001_test.py'
p113
g110
S'test_is_multiple_of_five'
p114
tp115
sI31
(S'/home/rob/work/build/code/src/project_euler/test/euler001_test.py'
p116
g110
S'test_given_multiples'
p117
tp118
sI32
(S'/home/rob/work/build/code/src/project_euler/test/euler001_test.py'
p119
g110
S'test_given_sum'
p120
tp121
sI33
(S'/home/rob/work/build/code/src/project_euler/test/euler001_test.py'
p122
g110
S'test_solution'
p123
tp124
sI34
(S'/home/rob/work/build/code/src/project_euler/test/euler002_test.py'
p125
S'project_euler.test.euler002_test'
p126
S'test_given_terms'
p127
tp128
sI35
(S'/home/rob/work/build/code/src/project_euler/test/euler002_test.py'
p129
g126
S'test_invalid_index_is_rejected'
p130
tp131
sI36
(S'/home/rob/work/build/code/src/project_euler/test/euler002_test.py'
p132
g126
S'test_zeroth_term'
p133
tp134
sI37
(S'/home/rob/work/build/code/src/project_euler/test/euler002_test.py'
p135
g126
S'test_sum_of_given_terms'
p136
tp137
sI38
(S'/home/rob/work/build/code/src/project_euler/test/euler002_test.py'
p138
S'project_euler.test.euler002_test'
p139
S'test_is_even'
p140
tp141
sI39
(S'/home/rob/work/build/code/src/project_euler/test/euler002_test.py'
p142
g139
S'test_sum_of_given_even_terms'
p143
tp144
ss.