(dp0
S'failed'
p1
(lp2
S'60'
p3
aS'61'
p4
aS'47'
p5
aS'48'
p6
aS'49'
p7
aS'50'
p8
aS'51'
p9
aS'53'
p10
aS'54'
p11
aS'55'
p12
aS'57'
p13
aS'58'
p14
aS'59'
p15
asS'source_names'
p16
(lp17
S'.'
p18
asS'ids'
p19
(dp20
I1
(S'/home/rob/work/build/code/src/mine/test/test.py'
p21
S'mine.test.test'
p22
S'test'
p23
tp24
sI2
(S'/home/rob/work/build/code/src/mine/test/test.py'
p25
S'mine.test.test'
p26
S'testNothing'
p27
tp28
sI3
(S'/home/rob/work/build/code/src/mine/test/test.py'
p29
S'mine.test.test'
p30
S'test_nothing'
p31
tp32
sI4
(S'/home/rob/work/build/code/src/test/dummy_test.py'
p33
S'test.dummy_test'
p34
S'test_nothing'
p35
tp36
sI5
(S'/home/rob/work/build/code/src/test/euler0001_test.py'
p37
S'test.euler0001_test'
p38
S'test_given'
p39
tp40
sI6
(S'/home/rob/work/build/code/src/test/dummy_test.py'
p41
S'test.dummy_test'
p42
S'test_pass'
p43
tp44
sI7
(S'/home/rob/work/build/code/src/test/dummy_test.py'
p45
g42
S'test_true'
p46
tp47
sI8
(S'/home/rob/work/build/code/src/test/euler0001_test.py'
p48
S'test.euler0001_test'
p49
S'test_given_sum'
p50
tp51
sI9
(S'/home/rob/work/build/code/src/test/euler0001_test.py'
p52
g49
S'test_given_multiples'
p53
tp54
sI10
(S'/home/rob/work/build/code/src/test/euler0001_test.py'
p55
S'test.euler0001_test'
p56
S'test_is_multiple_of_three'
p57
tp58
sI11
(S'/home/rob/work/build/code/src/test/euler0001_test.py'
p59
g56
S'test_is_multiple_of_five'
p60
tp61
sI12
(S'/home/rob/work/build/code/src/test/euler0001_test.py'
p62
S'test.euler0001_test'
p63
S'test_desired_solution'
p64
tp65
sI13
(S'/home/rob/work/build/code/src/test/euler001_test.py'
p66
S'test.euler001_test'
p67
S'test_is_multiple_of_three'
p68
tp69
sI14
(S'/home/rob/work/build/code/src/test/euler001_test.py'
p70
g67
S'test_is_multiple_of_five'
p71
tp72
sI15
(S'/home/rob/work/build/code/src/test/euler001_test.py'
p73
g67
S'test_given_multiples'
p74
tp75
sI16
(S'/home/rob/work/build/code/src/test/euler001_test.py'
p76
g67
S'test_given_sum'
p77
tp78
sI17
(S'/home/rob/work/build/code/src/test/euler001_test.py'
p79
g67
S'test_desired_solution'
p80
tp81
sI18
(S'/home/rob/work/build/code/src/test/euler002_test.py'
p82
S'test.euler002_test'
p83
Ntp84
sI19
(S'/home/rob/work/build/code/src/test/euler002_test.py'
p85
S'test.euler002_test'
p86
S'test_given_terms'
p87
tp88
sI20
(S'/home/rob/work/build/code/src/test/euler002_test.py'
p89
S'test.euler002_test'
p90
S'test_invalid_index'
p91
tp92
sI21
(S'/home/rob/work/build/code/src/test/euler002_test.py'
p93
g90
S'test_zero_term'
p94
tp95
sI22
(S'/home/rob/work/build/code/src/test/euler002_test.py'
p96
S'test.euler002_test'
p97
S'test_invalid_index_is_rejected'
p98
tp99
sI23
(S'/home/rob/work/build/code/src/test/euler001_test.py'
p100
S'test.euler001_test'
p101
Ntp102
sI24
(S'/home/rob/work/build/code/src/test/euler001_test.py'
p103
S'test.euler001_test'
p104
S'test_solution'
p105
tp106
sI25
(S'/home/rob/work/build/code/src/test/euler002_test.py'
p107
S'test.euler002_test'
p108
S'test_zeroth_term'
p109
tp110
sI26
(S'/home/rob/work/build/code/src/test/euler002_test.py'
p111
S'test.euler002_test'
p112
S'test_sum_of_given_terms'
p113
tp114
sI27
(S'/home/rob/work/build/code/src/project_euler/test/dummy_test.py'
p115
S'project_euler.test.dummy_test'
p116
S'test_pass'
p117
tp118
sI28
(S'/home/rob/work/build/code/src/project_euler/test/dummy_test.py'
p119
g116
S'test_true'
p120
tp121
sI29
(S'/home/rob/work/build/code/src/project_euler/test/euler001_test.py'
p122
S'project_euler.test.euler001_test'
p123
S'test_is_multiple_of_three'
p124
tp125
sI30
(S'/home/rob/work/build/code/src/project_euler/test/euler001_test.py'
p126
g123
S'test_is_multiple_of_five'
p127
tp128
sI31
(S'/home/rob/work/build/code/src/project_euler/test/euler001_test.py'
p129
g123
S'test_given_multiples'
p130
tp131
sI32
(S'/home/rob/work/build/code/src/project_euler/test/euler001_test.py'
p132
g123
S'test_given_sum'
p133
tp134
sI33
(S'/home/rob/work/build/code/src/project_euler/test/euler001_test.py'
p135
g123
S'test_solution'
p136
tp137
sI34
(S'/home/rob/work/build/code/src/project_euler/test/euler002_test.py'
p138
S'project_euler.test.euler002_test'
p139
S'test_given_terms'
p140
tp141
sI35
(S'/home/rob/work/build/code/src/project_euler/test/euler002_test.py'
p142
g139
S'test_invalid_index_is_rejected'
p143
tp144
sI36
(S'/home/rob/work/build/code/src/project_euler/test/euler002_test.py'
p145
g139
S'test_zeroth_term'
p146
tp147
sI37
(S'/home/rob/work/build/code/src/project_euler/test/euler002_test.py'
p148
g139
S'test_sum_of_given_terms'
p149
tp150
sI38
(S'/home/rob/work/build/code/src/project_euler/test/euler002_test.py'
p151
S'project_euler.test.euler002_test'
p152
S'test_is_even'
p153
tp154
sI39
(S'/home/rob/work/build/code/src/project_euler/test/euler002_test.py'
p155
g152
S'test_sum_of_given_even_terms'
p156
tp157
sI40
(S'/home/rob/work/build/code/src/project_euler/test/euler002_test.py'
p158
S'project_euler.test.euler002_test'
p159
S'test_fibonacci_below'
p160
tp161
sI41
(S'/home/rob/work/build/code/src/project_euler/test/euler002_test.py'
p162
S'project_euler.test.euler002_test'
p163
S'test_solution'
p164
tp165
sI42
(S'/home/rob/work/build/code/src/project_euler/test/euler002_test.py'
p166
S'project_euler.test.euler002_test'
p167
S'test_memory_usage'
p168
tp169
sI43
(S'/home/rob/work/build/code/src/project_euler/test/euler002_test.py'
p170
S'project_euler.test.euler002_test'
p171
S'test_infinite_sequence'
p172
tp173
sI44
(S'/home/rob/work/build/code/src/project_euler/test/euler002_test.py'
p174
S'project_euler.test.euler002_test'
p175
S'test_pseudo_infinite_sum'
p176
tp177
sI45
(S'/home/rob/work/build/code/src/project_euler/test/p001_test.py'
p178
S'project_euler.test.p001_test'
p179
S'test_is_multiple_of_three'
p180
tp181
sI46
(S'/home/rob/work/build/code/src/project_euler/test/p001_test.py'
p182
g179
S'test_is_multiple_of_five'
p183
tp184
sI47
(S'/home/rob/work/build/code/src/project_euler/test/p001_test.py'
p185
g179
S'test_given_multiples'
p186
tp187
sI48
(S'/home/rob/work/build/code/src/project_euler/test/p001_test.py'
p188
g179
S'test_given_sum'
p189
tp190
sI49
(S'/home/rob/work/build/code/src/project_euler/test/p001_test.py'
p191
g179
S'test_solution'
p192
tp193
sI50
(S'/home/rob/work/build/code/src/project_euler/test/p002_test.py'
p194
S'project_euler.test.p002_test'
p195
S'test_invalid_index_is_rejected'
p196
tp197
sI51
(S'/home/rob/work/build/code/src/project_euler/test/p002_test.py'
p198
g195
S'test_zeroth_term'
p199
tp200
sI52
(S'/home/rob/work/build/code/src/project_euler/test/p002_test.py'
p201
g195
S'test_is_even'
p202
tp203
sI53
(S'/home/rob/work/build/code/src/project_euler/test/p002_test.py'
p204
g195
S'test_sum_of_given_even_terms'
p205
tp206
sI54
(S'/home/rob/work/build/code/src/project_euler/test/p002_test.py'
p207
g195
S'test_given_terms'
p208
tp209
sI55
(S'/home/rob/work/build/code/src/project_euler/test/p002_test.py'
p210
g195
S'test_sum_of_given_terms'
p211
tp212
sI56
(S'/home/rob/work/build/code/src/project_euler/test/p002_test.py'
p213
g195
S'test_pseudo_infinite_sum'
p214
tp215
sI57
(S'/home/rob/work/build/code/src/project_euler/test/p002_test.py'
p216
g195
g192
tp217
sI58
(S'/home/rob/work/build/code/src/project_euler/test/p002_test.py'
p218
g195
S'test_fibonacci_below'
p219
tp220
sI59
(S'/home/rob/work/build/code/src/project_euler/test/p002_test.py'
p221
g195
S'test_memory_usage'
p222
tp223
sI60
(S'/home/rob/work/build/code/src/project_euler/test/p001_test.py'
p224
S'project_euler.test.p001_test'
p225
Ntp226
sI61
(S'/home/rob/work/build/code/src/project_euler/test/p002_test.py'
p227
S'project_euler.test.p002_test'
p228
Ntp229
sI62
(S'/home/rob/work/build/code/src/project_euler/test/math_test.py'
p230
S'project_euler.test.math_test'
p231
S'test_is_even'
p232
tp233
sI63
(S'/home/rob/work/build/code/src/project_euler/test/math_test.py'
p234
g231
S'test_is_multiple_of_three'
p235
tp236
sI64
(S'/home/rob/work/build/code/src/project_euler/test/math_test.py'
p237
g231
S'test_is_multiple_of_five'
p238
tp239
sI65
(S'/home/rob/work/build/code/src/project_euler/test/math_test.py'
p240
g231
S'test_pseudo_infinite_sum'
p241
tp242
sI66
(S'/home/rob/work/build/code/src/project_euler/test/generation_test.py'
p243
S'project_euler.test.generation_test'
p244
Ntp245
sI67
(S'/home/rob/work/build/code/src/project_euler/test/generation_test.py'
p246
S'project_euler.test.generation_test'
p247
S'test_pseudo_infinite_sum'
p248
tp249
sI68
(S'/home/rob/work/build/code/src/project_euler/test/generation_test.py'
p250
S'project_euler.test.generation_test'
p251
S'test_infinite_sum'
p252
tp253
ss.