(dp1
S'failed'
p2
(lp3
sS'source_names'
p4
(lp5
S'.'
asS'ids'
p6
(dp7
I1
(S'/home/rob/work/build/code/src/mine/test/test.py'
S'mine.test.test'
S'test'
tp8
sI2
(S'/home/rob/work/build/code/src/mine/test/test.py'
S'mine.test.test'
S'testNothing'
tp9
ss.