(dp0
S'failed'
p1
(lp2
sS'source_names'
p3
(lp4
S'.'
p5
asS'ids'
p6
(dp7
I1
(S'/home/rob/work/build/code/src/mine/test/test.py'
p8
S'mine.test.test'
p9
S'test'
p10
tp11
sI2
(S'/home/rob/work/build/code/src/mine/test/test.py'
p12
S'mine.test.test'
p13
S'testNothing'
p14
tp15
sI3
(S'/home/rob/work/build/code/src/mine/test/test.py'
p16
S'mine.test.test'
p17
S'test_nothing'
p18
tp19
sI4
(S'/home/rob/work/build/code/src/test/dummy_test.py'
p20
S'test.dummy_test'
p21
S'test_nothing'
p22
tp23
sI5
(S'/home/rob/work/build/code/src/test/euler0001_test.py'
p24
S'test.euler0001_test'
p25
S'test_given'
p26
tp27
sI6
(S'/home/rob/work/build/code/src/test/dummy_test.py'
p28
S'test.dummy_test'
p29
S'test_pass'
p30
tp31
sI7
(S'/home/rob/work/build/code/src/test/dummy_test.py'
p32
g29
S'test_true'
p33
tp34
sI8
(S'/home/rob/work/build/code/src/test/euler0001_test.py'
p35
S'test.euler0001_test'
p36
S'test_given_sum'
p37
tp38
sI9
(S'/home/rob/work/build/code/src/test/euler0001_test.py'
p39
g36
S'test_given_multiples'
p40
tp41
sI10
(S'/home/rob/work/build/code/src/test/euler0001_test.py'
p42
S'test.euler0001_test'
p43
S'test_is_multiple_of_three'
p44
tp45
sI11
(S'/home/rob/work/build/code/src/test/euler0001_test.py'
p46
g43
S'test_is_multiple_of_five'
p47
tp48
sI12
(S'/home/rob/work/build/code/src/test/euler0001_test.py'
p49
S'test.euler0001_test'
p50
S'test_desired_solution'
p51
tp52
sI13
(S'/home/rob/work/build/code/src/test/euler001_test.py'
p53
S'test.euler001_test'
p54
S'test_is_multiple_of_three'
p55
tp56
sI14
(S'/home/rob/work/build/code/src/test/euler001_test.py'
p57
g54
S'test_is_multiple_of_five'
p58
tp59
sI15
(S'/home/rob/work/build/code/src/test/euler001_test.py'
p60
g54
S'test_given_multiples'
p61
tp62
sI16
(S'/home/rob/work/build/code/src/test/euler001_test.py'
p63
g54
S'test_given_sum'
p64
tp65
sI17
(S'/home/rob/work/build/code/src/test/euler001_test.py'
p66
g54
S'test_desired_solution'
p67
tp68
sI18
(S'/home/rob/work/build/code/src/test/euler002_test.py'
p69
S'test.euler002_test'
p70
Ntp71
sI19
(S'/home/rob/work/build/code/src/test/euler002_test.py'
p72
S'test.euler002_test'
p73
S'test_given_terms'
p74
tp75
sI20
(S'/home/rob/work/build/code/src/test/euler002_test.py'
p76
S'test.euler002_test'
p77
S'test_invalid_index'
p78
tp79
sI21
(S'/home/rob/work/build/code/src/test/euler002_test.py'
p80
g77
S'test_zero_term'
p81
tp82
sI22
(S'/home/rob/work/build/code/src/test/euler002_test.py'
p83
S'test.euler002_test'
p84
S'test_invalid_index_is_rejected'
p85
tp86
sI23
(S'/home/rob/work/build/code/src/test/euler001_test.py'
p87
S'test.euler001_test'
p88
Ntp89
sI24
(S'/home/rob/work/build/code/src/test/euler001_test.py'
p90
S'test.euler001_test'
p91
S'test_solution'
p92
tp93
sI25
(S'/home/rob/work/build/code/src/test/euler002_test.py'
p94
S'test.euler002_test'
p95
S'test_zeroth_term'
p96
tp97
sI26
(S'/home/rob/work/build/code/src/test/euler002_test.py'
p98
S'test.euler002_test'
p99
S'test_sum_of_given_terms'
p100
tp101
sI27
(S'/home/rob/work/build/code/src/project_euler/test/dummy_test.py'
p102
S'project_euler.test.dummy_test'
p103
S'test_pass'
p104
tp105
sI28
(S'/home/rob/work/build/code/src/project_euler/test/dummy_test.py'
p106
g103
S'test_true'
p107
tp108
sI29
(S'/home/rob/work/build/code/src/project_euler/test/euler001_test.py'
p109
S'project_euler.test.euler001_test'
p110
S'test_is_multiple_of_three'
p111
tp112
sI30
(S'/home/rob/work/build/code/src/project_euler/test/euler001_test.py'
p113
g110
S'test_is_multiple_of_five'
p114
tp115
sI31
(S'/home/rob/work/build/code/src/project_euler/test/euler001_test.py'
p116
g110
S'test_given_multiples'
p117
tp118
sI32
(S'/home/rob/work/build/code/src/project_euler/test/euler001_test.py'
p119
g110
S'test_given_sum'
p120
tp121
sI33
(S'/home/rob/work/build/code/src/project_euler/test/euler001_test.py'
p122
g110
S'test_solution'
p123
tp124
sI34
(S'/home/rob/work/build/code/src/project_euler/test/euler002_test.py'
p125
S'project_euler.test.euler002_test'
p126
S'test_given_terms'
p127
tp128
sI35
(S'/home/rob/work/build/code/src/project_euler/test/euler002_test.py'
p129
g126
S'test_invalid_index_is_rejected'
p130
tp131
sI36
(S'/home/rob/work/build/code/src/project_euler/test/euler002_test.py'
p132
g126
S'test_zeroth_term'
p133
tp134
sI37
(S'/home/rob/work/build/code/src/project_euler/test/euler002_test.py'
p135
g126
S'test_sum_of_given_terms'
p136
tp137
sI38
(S'/home/rob/work/build/code/src/project_euler/test/euler002_test.py'
p138
S'project_euler.test.euler002_test'
p139
S'test_is_even'
p140
tp141
sI39
(S'/home/rob/work/build/code/src/project_euler/test/euler002_test.py'
p142
g139
S'test_sum_of_given_even_terms'
p143
tp144
sI40
(S'/home/rob/work/build/code/src/project_euler/test/euler002_test.py'
p145
S'project_euler.test.euler002_test'
p146
S'test_fibonacci_below'
p147
tp148
sI41
(S'/home/rob/work/build/code/src/project_euler/test/euler002_test.py'
p149
S'project_euler.test.euler002_test'
p150
S'test_solution'
p151
tp152
sI42
(S'/home/rob/work/build/code/src/project_euler/test/euler002_test.py'
p153
S'project_euler.test.euler002_test'
p154
S'test_memory_usage'
p155
tp156
sI43
(S'/home/rob/work/build/code/src/project_euler/test/euler002_test.py'
p157
S'project_euler.test.euler002_test'
p158
S'test_infinite_sequence'
p159
tp160
sI44
(S'/home/rob/work/build/code/src/project_euler/test/euler002_test.py'
p161
S'project_euler.test.euler002_test'
p162
S'test_pseudo_infinite_sum'
p163
tp164
sI45
(S'/home/rob/work/build/code/src/project_euler/test/p001_test.py'
p165
S'project_euler.test.p001_test'
p166
S'test_is_multiple_of_three'
p167
tp168
sI46
(S'/home/rob/work/build/code/src/project_euler/test/p001_test.py'
p169
g166
S'test_is_multiple_of_five'
p170
tp171
sI47
(S'/home/rob/work/build/code/src/project_euler/test/p001_test.py'
p172
g166
S'test_given_multiples'
p173
tp174
sI48
(S'/home/rob/work/build/code/src/project_euler/test/p001_test.py'
p175
g166
S'test_given_sum'
p176
tp177
sI49
(S'/home/rob/work/build/code/src/project_euler/test/p001_test.py'
p178
g166
S'test_solution'
p179
tp180
sI50
(S'/home/rob/work/build/code/src/project_euler/test/p002_test.py'
p181
S'project_euler.test.p002_test'
p182
S'test_invalid_index_is_rejected'
p183
tp184
sI51
(S'/home/rob/work/build/code/src/project_euler/test/p002_test.py'
p185
g182
S'test_zeroth_term'
p186
tp187
sI52
(S'/home/rob/work/build/code/src/project_euler/test/p002_test.py'
p188
g182
S'test_is_even'
p189
tp190
sI53
(S'/home/rob/work/build/code/src/project_euler/test/p002_test.py'
p191
g182
S'test_sum_of_given_even_terms'
p192
tp193
sI54
(S'/home/rob/work/build/code/src/project_euler/test/p002_test.py'
p194
g182
S'test_given_terms'
p195
tp196
sI55
(S'/home/rob/work/build/code/src/project_euler/test/p002_test.py'
p197
g182
S'test_sum_of_given_terms'
p198
tp199
sI56
(S'/home/rob/work/build/code/src/project_euler/test/p002_test.py'
p200
g182
S'test_pseudo_infinite_sum'
p201
tp202
sI57
(S'/home/rob/work/build/code/src/project_euler/test/p002_test.py'
p203
g182
g179
tp204
sI58
(S'/home/rob/work/build/code/src/project_euler/test/p002_test.py'
p205
g182
S'test_fibonacci_below'
p206
tp207
sI59
(S'/home/rob/work/build/code/src/project_euler/test/p002_test.py'
p208
g182
S'test_memory_usage'
p209
tp210
sI60
(S'/home/rob/work/build/code/src/project_euler/test/p001_test.py'
p211
S'project_euler.test.p001_test'
p212
Ntp213
sI61
(S'/home/rob/work/build/code/src/project_euler/test/p002_test.py'
p214
S'project_euler.test.p002_test'
p215
Ntp216
sI62
(S'/home/rob/work/build/code/src/project_euler/test/math_test.py'
p217
S'project_euler.test.math_test'
p218
S'test_is_even'
p219
tp220
sI63
(S'/home/rob/work/build/code/src/project_euler/test/math_test.py'
p221
g218
S'test_is_multiple_of_three'
p222
tp223
sI64
(S'/home/rob/work/build/code/src/project_euler/test/math_test.py'
p224
g218
S'test_is_multiple_of_five'
p225
tp226
sI65
(S'/home/rob/work/build/code/src/project_euler/test/math_test.py'
p227
g218
S'test_pseudo_infinite_sum'
p228
tp229
sI66
(S'/home/rob/work/build/code/src/project_euler/test/generation_test.py'
p230
S'project_euler.test.generation_test'
p231
Ntp232
sI67
(S'/home/rob/work/build/code/src/project_euler/test/generation_test.py'
p233
S'project_euler.test.generation_test'
p234
S'test_pseudo_infinite_sum'
p235
tp236
sI68
(S'/home/rob/work/build/code/src/project_euler/test/generation_test.py'
p237
S'project_euler.test.generation_test'
p238
S'test_infinite_sum'
p239
tp240
sI69
(S'/home/rob/work/build/code/src/project_euler/test/p002_test.py'
p241
S'project_euler.test.p002_test'
p242
S'test_big_fibonacci'
p243
tp244
sI70
(S'/home/rob/work/build/code/src/project_euler/test/p002_generator_test.py'
p245
S'project_euler.test.p002_generator_test'
p246
S'test_invalid_index_is_rejected'
p247
tp248
sI71
(S'/home/rob/work/build/code/src/project_euler/test/p002_generator_test.py'
p249
g246
S'test_zeroth_term'
p250
tp251
sI72
(S'/home/rob/work/build/code/src/project_euler/test/p002_generator_test.py'
p252
g246
S'test_sum_of_given_even_terms'
p253
tp254
sI73
(S'/home/rob/work/build/code/src/project_euler/test/p002_generator_test.py'
p255
g246
S'test_given_terms'
p256
tp257
sI74
(S'/home/rob/work/build/code/src/project_euler/test/p002_generator_test.py'
p258
g246
S'test_sum_of_given_terms'
p259
tp260
sI75
(S'/home/rob/work/build/code/src/project_euler/test/p002_generator_test.py'
p261
g246
S'test_solution'
p262
tp263
sI76
(S'/home/rob/work/build/code/src/project_euler/test/p002_generator_test.py'
p264
g246
S'test_fibonacci_below'
p265
tp266
sI77
(S'/home/rob/work/build/code/src/project_euler/test/p002_generator_test.py'
p267
g246
S'test_big_fibonacci'
p268
tp269
sI78
(S'/home/rob/work/build/code/src/project_euler/test/p002_recursion_cache_test.py'
p270
S'project_euler.test.p002_recursion_cache_test'
p271
g247
tp272
sI79
(S'/home/rob/work/build/code/src/project_euler/test/p002_recursion_cache_test.py'
p273
g271
g250
tp274
sI80
(S'/home/rob/work/build/code/src/project_euler/test/p002_recursion_cache_test.py'
p275
g271
g253
tp276
sI81
(S'/home/rob/work/build/code/src/project_euler/test/p002_recursion_cache_test.py'
p277
g271
g256
tp278
sI82
(S'/home/rob/work/build/code/src/project_euler/test/p002_recursion_cache_test.py'
p279
g271
g259
tp280
sI83
(S'/home/rob/work/build/code/src/project_euler/test/p002_recursion_cache_test.py'
p281
g271
g262
tp282
sI84
(S'/home/rob/work/build/code/src/project_euler/test/p002_recursion_cache_test.py'
p283
g271
g265
tp284
sI85
(S'/home/rob/work/build/code/src/project_euler/test/p002_recursion_cache_test.py'
p285
g271
g268
tp286
sI86
(S'/home/rob/work/build/code/src/project_euler/test/p002_recursion_nocache_test.py'
p287
S'project_euler.test.p002_recursion_nocache_test'
p288
g247
tp289
sI87
(S'/home/rob/work/build/code/src/project_euler/test/p002_recursion_nocache_test.py'
p290
g288
g250
tp291
sI88
(S'/home/rob/work/build/code/src/project_euler/test/p002_recursion_nocache_test.py'
p292
g288
g253
tp293
sI89
(S'/home/rob/work/build/code/src/project_euler/test/p002_recursion_nocache_test.py'
p294
g288
g256
tp295
sI90
(S'/home/rob/work/build/code/src/project_euler/test/p002_recursion_nocache_test.py'
p296
g288
g259
tp297
sI91
(S'/home/rob/work/build/code/src/project_euler/test/p002_recursion_nocache_test.py'
p298
g288
g262
tp299
sI92
(S'/home/rob/work/build/code/src/project_euler/test/p002_recursion_nocache_test.py'
p300
g288
g265
tp301
sI93
(S'/home/rob/work/build/code/src/project_euler/test/p002_recursion_nocache_test.py'
p302
g288
g268
tp303
ss.