(dp0
S'failed'
p1
(lp2
sS'source_names'
p3
(lp4
S'.'
p5
asS'ids'
p6
(dp7
I1
(S'/home/rob/work/build/code/src/example/test/dummy_test.py'
p8
S'example.test.dummy_test'
p9
S'test_pass'
p10
tp11
sI2
(S'/home/rob/work/build/code/src/example/test/dummy_test.py'
p12
g9
S'test_true'
p13
tp14
ss.