(dp1
S'failed'
p2
(lp3
sS'source_names'
p4
(lp5
S'.'
asS'ids'
p6
(dp7
I1
(S'/home/rob/work/build/code/src/mine/test/test.py'
S'mine.test.test'
S'test'
tp8
sI2
(S'/home/rob/work/build/code/src/mine/test/test.py'
S'mine.test.test'
S'testNothing'
tp9
sI3
(S'/home/rob/work/build/code/src/mine/test/test.py'
S'mine.test.test'
S'test_nothing'
tp10
sI4
(S'/home/rob/work/build/code/src/test/dummy_test.py'
S'test.dummy_test'
S'test_nothing'
tp11
sI5
(S'/home/rob/work/build/code/src/test/euler0001_test.py'
S'test.euler0001_test'
S'test_given'
tp12
sI6
(S'/home/rob/work/build/code/src/test/dummy_test.py'
S'test.dummy_test'
p13
S'test_pass'
tp14
sI7
(S'/home/rob/work/build/code/src/test/dummy_test.py'
g13
S'test_true'
tp15
sI8
(S'/home/rob/work/build/code/src/test/euler0001_test.py'
S'test.euler0001_test'
p16
S'test_given_sum'
tp17
sI9
(S'/home/rob/work/build/code/src/test/euler0001_test.py'
g16
S'test_given_multiples'
tp18
sI10
(S'/home/rob/work/build/code/src/test/euler0001_test.py'
S'test.euler0001_test'
p19
S'test_is_multiple_of_three'
tp20
sI11
(S'/home/rob/work/build/code/src/test/euler0001_test.py'
g19
S'test_is_multiple_of_five'
tp21
sI12
(S'/home/rob/work/build/code/src/test/euler0001_test.py'
S'test.euler0001_test'
S'test_desired_solution'
tp22
sI13
(S'/home/rob/work/build/code/src/test/euler001_test.py'
S'test.euler001_test'
p23
S'test_is_multiple_of_three'
tp24
sI14
(S'/home/rob/work/build/code/src/test/euler001_test.py'
g23
S'test_is_multiple_of_five'
tp25
sI15
(S'/home/rob/work/build/code/src/test/euler001_test.py'
g23
S'test_given_multiples'
tp26
sI16
(S'/home/rob/work/build/code/src/test/euler001_test.py'
g23
S'test_given_sum'
tp27
sI17
(S'/home/rob/work/build/code/src/test/euler001_test.py'
g23
S'test_desired_solution'
tp28
ss.