(dp0
S'failed'
p1
(lp2
sS'source_names'
p3
(lp4
S'.'
p5
asS'ids'
p6
(dp7
I1
(S'/home/rob/work/build/code/src/mine/test/test.py'
p8
S'mine.test.test'
p9
S'test'
p10
tp11
sI2
(S'/home/rob/work/build/code/src/mine/test/test.py'
p12
S'mine.test.test'
p13
S'testNothing'
p14
tp15
sI3
(S'/home/rob/work/build/code/src/mine/test/test.py'
p16
S'mine.test.test'
p17
S'test_nothing'
p18
tp19
sI4
(S'/home/rob/work/build/code/src/test/dummy_test.py'
p20
S'test.dummy_test'
p21
S'test_nothing'
p22
tp23
sI5
(S'/home/rob/work/build/code/src/test/euler0001_test.py'
p24
S'test.euler0001_test'
p25
S'test_given'
p26
tp27
sI6
(S'/home/rob/work/build/code/src/test/dummy_test.py'
p28
S'test.dummy_test'
p29
S'test_pass'
p30
tp31
sI7
(S'/home/rob/work/build/code/src/test/dummy_test.py'
p32
g29
S'test_true'
p33
tp34
sI8
(S'/home/rob/work/build/code/src/test/euler0001_test.py'
p35
S'test.euler0001_test'
p36
S'test_given_sum'
p37
tp38
sI9
(S'/home/rob/work/build/code/src/test/euler0001_test.py'
p39
g36
S'test_given_multiples'
p40
tp41
sI10
(S'/home/rob/work/build/code/src/test/euler0001_test.py'
p42
S'test.euler0001_test'
p43
S'test_is_multiple_of_three'
p44
tp45
sI11
(S'/home/rob/work/build/code/src/test/euler0001_test.py'
p46
g43
S'test_is_multiple_of_five'
p47
tp48
sI12
(S'/home/rob/work/build/code/src/test/euler0001_test.py'
p49
S'test.euler0001_test'
p50
S'test_desired_solution'
p51
tp52
sI13
(S'/home/rob/work/build/code/src/test/euler001_test.py'
p53
S'test.euler001_test'
p54
S'test_is_multiple_of_three'
p55
tp56
sI14
(S'/home/rob/work/build/code/src/test/euler001_test.py'
p57
g54
S'test_is_multiple_of_five'
p58
tp59
sI15
(S'/home/rob/work/build/code/src/test/euler001_test.py'
p60
g54
S'test_given_multiples'
p61
tp62
sI16
(S'/home/rob/work/build/code/src/test/euler001_test.py'
p63
g54
S'test_given_sum'
p64
tp65
sI17
(S'/home/rob/work/build/code/src/test/euler001_test.py'
p66
g54
S'test_desired_solution'
p67
tp68
sI18
(S'/home/rob/work/build/code/src/test/euler002_test.py'
p69
S'test.euler002_test'
p70
Ntp71
sI19
(S'/home/rob/work/build/code/src/test/euler002_test.py'
p72
S'test.euler002_test'
p73
S'test_given_terms'
p74
tp75
sI20
(S'/home/rob/work/build/code/src/test/euler002_test.py'
p76
S'test.euler002_test'
p77
S'test_invalid_index'
p78
tp79
sI21
(S'/home/rob/work/build/code/src/test/euler002_test.py'
p80
g77
S'test_zero_term'
p81
tp82
sI22
(S'/home/rob/work/build/code/src/test/euler002_test.py'
p83
S'test.euler002_test'
p84
S'test_invalid_index_is_rejected'
p85
tp86
ss.